target datalayout = "e-m:e-p270:32:32-p271:32:32-p272:64:64-i64:64-i128:128-f80:128-n8:16:32:64-S128"
target triple = "x86_64-pc-linux-gnu"

%struct.Py_complex = type { double, double }

@PyExc_ValueError = external global ptr, align 8
@.str.25 = private unnamed_addr constant [18 x i8] c"math domain error\00", align 1
@PyExc_OverflowError = external global ptr, align 8
@.str.26 = private unnamed_addr constant [17 x i8] c"math range error\00", align 1
@exp_special_values = internal global [7 x [7 x %struct.Py_complex]] zeroinitializer, align 16

; Function Attrs: nounwind uwtable
define internal i32 @special_type(double noundef %0) #0 {
  %2 = alloca i32, align 4
  %3 = alloca double, align 8
  store double %0, ptr %3, align 8, !tbaa !9
  %4 = load double, ptr %3, align 8, !tbaa !9
  %5 = call i1 @llvm.is.fpclass.f64(double %4, i32 504)
  br i1 %5, label %6, label %21

6:                                                ; preds = %1
  %7 = load double, ptr %3, align 8, !tbaa !9
  %8 = fcmp une double %7, 0.000000e+00
  br i1 %8, label %9, label %15

9:                                                ; preds = %6
  %10 = load double, ptr %3, align 8, !tbaa !9
  %11 = call double @llvm.copysign.f64(double 1.000000e+00, double %10)
  %12 = fcmp oeq double %11, 1.000000e+00
  br i1 %12, label %13, label %14

13:                                               ; preds = %9
  store i32 4, ptr %2, align 4
  br label %31

14:                                               ; preds = %9
  store i32 1, ptr %2, align 4
  br label %31

15:                                               ; preds = %6
  %16 = load double, ptr %3, align 8, !tbaa !9
  %17 = call double @llvm.copysign.f64(double 1.000000e+00, double %16)
  %18 = fcmp oeq double %17, 1.000000e+00
  br i1 %18, label %19, label %20

19:                                               ; preds = %15
  store i32 3, ptr %2, align 4
  br label %31

20:                                               ; preds = %15
  store i32 2, ptr %2, align 4
  br label %31

21:                                               ; preds = %1
  %22 = load double, ptr %3, align 8, !tbaa !9
  %23 = call i1 @llvm.is.fpclass.f64(double %22, i32 3)
  br i1 %23, label %24, label %25

24:                                               ; preds = %21
  store i32 6, ptr %2, align 4
  br label %31

25:                                               ; preds = %21
  %26 = load double, ptr %3, align 8, !tbaa !9
  %27 = call double @llvm.copysign.f64(double 1.000000e+00, double %26)
  %28 = fcmp oeq double %27, 1.000000e+00
  br i1 %28, label %29, label %30

29:                                               ; preds = %25
  store i32 5, ptr %2, align 4
  br label %31

30:                                               ; preds = %25
  store i32 0, ptr %2, align 4
  br label %31

31:                                               ; preds = %30, %29, %24, %20, %19, %14, %13
  %32 = load i32, ptr %2, align 4
  ret i32 %32
}

; Function Attrs: nounwind uwtable
define internal { double, double } @cmath_exp_impl(ptr noundef %0, double %1, double %2) #0 {
  %4 = alloca %struct.Py_complex, align 8
  %5 = alloca %struct.Py_complex, align 8
  %6 = alloca ptr, align 8
  %7 = alloca double, align 8
  %8 = alloca i32, align 4
  %9 = getelementptr inbounds nuw { double, double }, ptr %5, i32 0, i32 0
  store double %1, ptr %9, align 8
  %10 = getelementptr inbounds nuw { double, double }, ptr %5, i32 0, i32 1
  store double %2, ptr %10, align 8
  store ptr %0, ptr %6, align 8, !tbaa !3
  call void @llvm.lifetime.start.p0(i64 8, ptr %7) #8
  %11 = getelementptr inbounds nuw %struct.Py_complex, ptr %5, i32 0, i32 0
  %12 = load double, ptr %11, align 8, !tbaa !17
  %13 = call i1 @llvm.is.fpclass.f64(double %12, i32 504)
  br i1 %13, label %14, label %18

14:                                               ; preds = %3
  %15 = getelementptr inbounds nuw %struct.Py_complex, ptr %5, i32 0, i32 1
  %16 = load double, ptr %15, align 8, !tbaa !19
  %17 = call i1 @llvm.is.fpclass.f64(double %16, i32 504)
  br i1 %17, label %107, label %18

18:                                               ; preds = %14, %3
  %19 = getelementptr inbounds nuw %struct.Py_complex, ptr %5, i32 0, i32 0
  %20 = load double, ptr %19, align 8, !tbaa !17
  %21 = call double @llvm.fabs.f64(double %20) #10
  %22 = fcmp oeq double %21, 0x7FF0000000000000
  %23 = bitcast double %20 to i64
  %24 = icmp slt i64 %23, 0
  %25 = select i1 %24, i32 -1, i32 1
  %26 = select i1 %22, i32 %25, i32 0
  %27 = icmp ne i32 %26, 0
  br i1 %27, label %28, label %63

28:                                               ; preds = %18
  %29 = getelementptr inbounds nuw %struct.Py_complex, ptr %5, i32 0, i32 1
  %30 = load double, ptr %29, align 8, !tbaa !19
  %31 = call i1 @llvm.is.fpclass.f64(double %30, i32 504)
  br i1 %31, label %32, label %63

32:                                               ; preds = %28
  %33 = getelementptr inbounds nuw %struct.Py_complex, ptr %5, i32 0, i32 1
  %34 = load double, ptr %33, align 8, !tbaa !19
  %35 = fcmp une double %34, 0.000000e+00
  br i1 %35, label %36, label %63

36:                                               ; preds = %32
  %37 = getelementptr inbounds nuw %struct.Py_complex, ptr %5, i32 0, i32 0
  %38 = load double, ptr %37, align 8, !tbaa !17
  %39 = fcmp ogt double %38, 0.000000e+00
  br i1 %39, label %40, label %51

40:                                               ; preds = %36
  %41 = getelementptr inbounds nuw %struct.Py_complex, ptr %5, i32 0, i32 1
  %42 = load double, ptr %41, align 8, !tbaa !19
  %43 = call double @cos(double noundef %42) #8, !tbaa !11
  %44 = call double @llvm.copysign.f64(double 0x7FF0000000000000, double %43)
  %45 = getelementptr inbounds nuw %struct.Py_complex, ptr %4, i32 0, i32 0
  store double %44, ptr %45, align 8, !tbaa !17
  %46 = getelementptr inbounds nuw %struct.Py_complex, ptr %5, i32 0, i32 1
  %47 = load double, ptr %46, align 8, !tbaa !19
  %48 = call double @sin(double noundef %47) #8, !tbaa !11
  %49 = call double @llvm.copysign.f64(double 0x7FF0000000000000, double %48)
  %50 = getelementptr inbounds nuw %struct.Py_complex, ptr %4, i32 0, i32 1
  store double %49, ptr %50, align 8, !tbaa !19
  br label %62

51:                                               ; preds = %36
  %52 = getelementptr inbounds nuw %struct.Py_complex, ptr %5, i32 0, i32 1
  %53 = load double, ptr %52, align 8, !tbaa !19
  %54 = call double @cos(double noundef %53) #8, !tbaa !11
  %55 = call double @llvm.copysign.f64(double 0.000000e+00, double %54)
  %56 = getelementptr inbounds nuw %struct.Py_complex, ptr %4, i32 0, i32 0
  store double %55, ptr %56, align 8, !tbaa !17
  %57 = getelementptr inbounds nuw %struct.Py_complex, ptr %5, i32 0, i32 1
  %58 = load double, ptr %57, align 8, !tbaa !19
  %59 = call double @sin(double noundef %58) #8, !tbaa !11
  %60 = call double @llvm.copysign.f64(double 0.000000e+00, double %59)
  %61 = getelementptr inbounds nuw %struct.Py_complex, ptr %4, i32 0, i32 1
  store double %60, ptr %61, align 8, !tbaa !19
  br label %62

62:                                               ; preds = %51, %40
  br label %74

63:                                               ; preds = %32, %28, %18
  %64 = getelementptr inbounds nuw %struct.Py_complex, ptr %5, i32 0, i32 0
  %65 = load double, ptr %64, align 8, !tbaa !17
  %66 = call i32 @special_type(double noundef %65)
  %67 = zext i32 %66 to i64
  %68 = getelementptr [7 x [7 x %struct.Py_complex]], ptr @exp_special_values, i64 0, i64 %67
  %69 = getelementptr inbounds nuw %struct.Py_complex, ptr %5, i32 0, i32 1
  %70 = load double, ptr %69, align 8, !tbaa !19
  %71 = call i32 @special_type(double noundef %70)
  %72 = zext i32 %71 to i64
  %73 = getelementptr [7 x %struct.Py_complex], ptr %68, i64 0, i64 %72
  call void @llvm.memcpy.p0.p0.i64(ptr align 8 %4, ptr align 16 %73, i64 16, i1 false), !tbaa.struct !8
  br label %74

74:                                               ; preds = %63, %62
  %75 = getelementptr inbounds nuw %struct.Py_complex, ptr %5, i32 0, i32 1
  %76 = load double, ptr %75, align 8, !tbaa !19
  %77 = call double @llvm.fabs.f64(double %76) #10
  %78 = fcmp oeq double %77, 0x7FF0000000000000
  %79 = bitcast double %76 to i64
  %80 = icmp slt i64 %79, 0
  %81 = select i1 %80, i32 -1, i32 1
  %82 = select i1 %78, i32 %81, i32 0
  %83 = icmp ne i32 %82, 0
  br i1 %83, label %84, label %104

84:                                               ; preds = %74
  %85 = getelementptr inbounds nuw %struct.Py_complex, ptr %5, i32 0, i32 0
  %86 = load double, ptr %85, align 8, !tbaa !17
  %87 = call i1 @llvm.is.fpclass.f64(double %86, i32 504)
  br i1 %87, label %102, label %88

88:                                               ; preds = %84
  %89 = getelementptr inbounds nuw %struct.Py_complex, ptr %5, i32 0, i32 0
  %90 = load double, ptr %89, align 8, !tbaa !17
  %91 = call double @llvm.fabs.f64(double %90) #10
  %92 = fcmp oeq double %91, 0x7FF0000000000000
  %93 = bitcast double %90 to i64
  %94 = icmp slt i64 %93, 0
  %95 = select i1 %94, i32 -1, i32 1
  %96 = select i1 %92, i32 %95, i32 0
  %97 = icmp ne i32 %96, 0
  br i1 %97, label %98, label %104

98:                                               ; preds = %88
  %99 = getelementptr inbounds nuw %struct.Py_complex, ptr %5, i32 0, i32 0
  %100 = load double, ptr %99, align 8, !tbaa !17
  %101 = fcmp ogt double %100, 0.000000e+00
  br i1 %101, label %102, label %104

102:                                              ; preds = %98, %84
  %103 = call ptr @__errno_location() #9
  store i32 33, ptr %103, align 4, !tbaa !11
  br label %106

104:                                              ; preds = %98, %88, %74
  %105 = call ptr @__errno_location() #9
  store i32 0, ptr %105, align 4, !tbaa !11
  br label %106

106:                                              ; preds = %104, %102
  store i32 1, ptr %8, align 4
  br label %172

107:                                              ; preds = %14
  %108 = getelementptr inbounds nuw %struct.Py_complex, ptr %5, i32 0, i32 0
  %109 = load double, ptr %108, align 8, !tbaa !17
  %110 = call double @log(double noundef 0x7FCFFFFFFFFFFFFF) #8, !tbaa !11
  %111 = fcmp ogt double %109, %110
  br i1 %111, label %112, label %131

112:                                              ; preds = %107
  %113 = getelementptr inbounds nuw %struct.Py_complex, ptr %5, i32 0, i32 0
  %114 = load double, ptr %113, align 8, !tbaa !17
  %115 = fsub double %114, 1.000000e+00
  %116 = call double @exp(double noundef %115) #8, !tbaa !11
  store double %116, ptr %7, align 8, !tbaa !9
  %117 = load double, ptr %7, align 8, !tbaa !9
  %118 = getelementptr inbounds nuw %struct.Py_complex, ptr %5, i32 0, i32 1
  %119 = load double, ptr %118, align 8, !tbaa !19
  %120 = call double @cos(double noundef %119) #8, !tbaa !11
  %121 = fmul double %117, %120
  %122 = fmul double %121, 0x4005BF0A8B145769
  %123 = getelementptr inbounds nuw %struct.Py_complex, ptr %4, i32 0, i32 0
  store double %122, ptr %123, align 8, !tbaa !17
  %124 = load double, ptr %7, align 8, !tbaa !9
  %125 = getelementptr inbounds nuw %struct.Py_complex, ptr %5, i32 0, i32 1
  %126 = load double, ptr %125, align 8, !tbaa !19
  %127 = call double @sin(double noundef %126) #8, !tbaa !11
  %128 = fmul double %124, %127
  %129 = fmul double %128, 0x4005BF0A8B145769
  %130 = getelementptr inbounds nuw %struct.Py_complex, ptr %4, i32 0, i32 1
  store double %129, ptr %130, align 8, !tbaa !19
  br label %147

131:                                              ; preds = %107
  %132 = getelementptr inbounds nuw %struct.Py_complex, ptr %5, i32 0, i32 0
  %133 = load double, ptr %132, align 8, !tbaa !17
  %134 = call double @exp(double noundef %133) #8, !tbaa !11
  store double %134, ptr %7, align 8, !tbaa !9
  %135 = load double, ptr %7, align 8, !tbaa !9
  %136 = getelementptr inbounds nuw %struct.Py_complex, ptr %5, i32 0, i32 1
  %137 = load double, ptr %136, align 8, !tbaa !19
  %138 = call double @cos(double noundef %137) #8, !tbaa !11
  %139 = fmul double %135, %138
  %140 = getelementptr inbounds nuw %struct.Py_complex, ptr %4, i32 0, i32 0
  store double %139, ptr %140, align 8, !tbaa !17
  %141 = load double, ptr %7, align 8, !tbaa !9
  %142 = getelementptr inbounds nuw %struct.Py_complex, ptr %5, i32 0, i32 1
  %143 = load double, ptr %142, align 8, !tbaa !19
  %144 = call double @sin(double noundef %143) #8, !tbaa !11
  %145 = fmul double %141, %144
  %146 = getelementptr inbounds nuw %struct.Py_complex, ptr %4, i32 0, i32 1
  store double %145, ptr %146, align 8, !tbaa !19
  br label %147

147:                                              ; preds = %131, %112
  %148 = getelementptr inbounds nuw %struct.Py_complex, ptr %4, i32 0, i32 0
  %149 = load double, ptr %148, align 8, !tbaa !17
  %150 = call double @llvm.fabs.f64(double %149) #10
  %151 = fcmp oeq double %150, 0x7FF0000000000000
  %152 = bitcast double %149 to i64
  %153 = icmp slt i64 %152, 0
  %154 = select i1 %153, i32 -1, i32 1
  %155 = select i1 %151, i32 %154, i32 0
  %156 = icmp ne i32 %155, 0
  br i1 %156, label %167, label %157

157:                                              ; preds = %147
  %158 = getelementptr inbounds nuw %struct.Py_complex, ptr %4, i32 0, i32 1
  %159 = load double, ptr %158, align 8, !tbaa !19
  %160 = call double @llvm.fabs.f64(double %159) #10
  %161 = fcmp oeq double %160, 0x7FF0000000000000
  %162 = bitcast double %159 to i64
  %163 = icmp slt i64 %162, 0
  %164 = select i1 %163, i32 -1, i32 1
  %165 = select i1 %161, i32 %164, i32 0
  %166 = icmp ne i32 %165, 0
  br i1 %166, label %167, label %169

167:                                              ; preds = %157, %147
  %168 = call ptr @__errno_location() #9
  store i32 34, ptr %168, align 4, !tbaa !11
  br label %171

169:                                              ; preds = %157
  %170 = call ptr @__errno_location() #9
  store i32 0, ptr %170, align 4, !tbaa !11
  br label %171

171:                                              ; preds = %169, %167
  store i32 1, ptr %8, align 4
  br label %172

172:                                              ; preds = %171, %106
  call void @llvm.lifetime.end.p0(i64 8, ptr %7) #8
  %173 = load { double, double }, ptr %4, align 8
  ret { double, double } %173
}

; Function Attrs: nounwind uwtable
define internal ptr @cmath_exp(ptr noundef %0, ptr noundef %1) #0 {
  %3 = alloca ptr, align 8
  %4 = alloca ptr, align 8
  %5 = alloca ptr, align 8
  %6 = alloca %struct.Py_complex, align 8
  %7 = alloca %struct.Py_complex, align 8
  %8 = alloca %struct.Py_complex, align 8
  %9 = alloca %struct.Py_complex, align 8
  store ptr %0, ptr %3, align 8, !tbaa !3
  store ptr %1, ptr %4, align 8, !tbaa !3
  call void @llvm.lifetime.start.p0(i64 8, ptr %5) #8
  store ptr null, ptr %5, align 8, !tbaa !3
  call void @llvm.lifetime.start.p0(i64 16, ptr %6) #8
  call void @llvm.lifetime.start.p0(i64 16, ptr %7) #8
  call void @llvm.lifetime.start.p0(i64 16, ptr %8) #8
  %10 = load ptr, ptr %4, align 8, !tbaa !3
  %11 = call { double, double } @PyComplex_AsCComplex(ptr noundef %10)
  %12 = getelementptr inbounds nuw { double, double }, ptr %8, i32 0, i32 0
  %13 = extractvalue { double, double } %11, 0
  store double %13, ptr %12, align 8
  %14 = getelementptr inbounds nuw { double, double }, ptr %8, i32 0, i32 1
  %15 = extractvalue { double, double } %11, 1
  store double %15, ptr %14, align 8
  call void @llvm.memcpy.p0.p0.i64(ptr align 8 %6, ptr align 8 %8, i64 16, i1 false), !tbaa.struct !8
  call void @llvm.lifetime.end.p0(i64 16, ptr %8) #8
  %16 = call ptr @PyErr_Occurred()
  %17 = icmp ne ptr %16, null
  br i1 %17, label %18, label %19

18:                                               ; preds = %2
  br label %50

19:                                               ; preds = %2
  %20 = call ptr @__errno_location() #9
  store i32 0, ptr %20, align 4, !tbaa !11
  call void @llvm.lifetime.start.p0(i64 16, ptr %9) #8
  %21 = load ptr, ptr %3, align 8, !tbaa !3
  %22 = getelementptr inbounds nuw { double, double }, ptr %6, i32 0, i32 0
  %23 = load double, ptr %22, align 8
  %24 = getelementptr inbounds nuw { double, double }, ptr %6, i32 0, i32 1
  %25 = load double, ptr %24, align 8
  %26 = call { double, double } @cmath_exp_impl(ptr noundef %21, double %23, double %25)
  %27 = getelementptr inbounds nuw { double, double }, ptr %9, i32 0, i32 0
  %28 = extractvalue { double, double } %26, 0
  store double %28, ptr %27, align 8
  %29 = getelementptr inbounds nuw { double, double }, ptr %9, i32 0, i32 1
  %30 = extractvalue { double, double } %26, 1
  store double %30, ptr %29, align 8
  call void @llvm.memcpy.p0.p0.i64(ptr align 8 %7, ptr align 8 %9, i64 16, i1 false), !tbaa.struct !8
  call void @llvm.lifetime.end.p0(i64 16, ptr %9) #8
  %31 = call ptr @__errno_location() #9
  %32 = load i32, ptr %31, align 4, !tbaa !11
  %33 = icmp eq i32 %32, 33
  br i1 %33, label %34, label %36

34:                                               ; preds = %19
  %35 = load ptr, ptr @PyExc_ValueError, align 8, !tbaa !3
  call void @PyErr_SetString(ptr noundef %35, ptr noundef @.str.25)
  br label %50

36:                                               ; preds = %19
  %37 = call ptr @__errno_location() #9
  %38 = load i32, ptr %37, align 4, !tbaa !11
  %39 = icmp eq i32 %38, 34
  br i1 %39, label %40, label %42

40:                                               ; preds = %36
  %41 = load ptr, ptr @PyExc_OverflowError, align 8, !tbaa !3
  call void @PyErr_SetString(ptr noundef %41, ptr noundef @.str.26)
  br label %50

42:                                               ; preds = %36
  %43 = getelementptr inbounds nuw { double, double }, ptr %7, i32 0, i32 0
  %44 = load double, ptr %43, align 8
  %45 = getelementptr inbounds nuw { double, double }, ptr %7, i32 0, i32 1
  %46 = load double, ptr %45, align 8
  %47 = call ptr @PyComplex_FromCComplex(double %44, double %46)
  store ptr %47, ptr %5, align 8, !tbaa !3
  br label %48

48:                                               ; preds = %42
  br label %49

49:                                               ; preds = %48
  br label %50

50:                                               ; preds = %49, %40, %34, %18
  %51 = load ptr, ptr %5, align 8, !tbaa !3
  call void @llvm.lifetime.end.p0(i64 16, ptr %7) #8
  call void @llvm.lifetime.end.p0(i64 16, ptr %6) #8
  call void @llvm.lifetime.end.p0(i64 8, ptr %5) #8
  ret ptr %51
}