; Function Attrs: nounwind uwtable
define internal ptr @cmath_exp(ptr readnone captures(none) %0, ptr noundef %1) #0 {
  %3 = tail call { double, double } @PyComplex_AsCComplex(ptr noundef %1) #11
  %4 = tail call ptr @PyErr_Occurred() #11
  %.not = icmp eq ptr %4, null
  br i1 %.not, label %5, label %83

5:                                                ; preds = %2
  %6 = extractvalue { double, double } %3, 1
  %7 = extractvalue { double, double } %3, 0
  %8 = tail call ptr @__errno_location() #12
  %9 = tail call double @llvm.fabs.f64(double %7)
  %10 = fcmp one double %9, 0x7FF0000000000000
  %11 = tail call double @llvm.fabs.f64(double %6)
  %12 = fcmp one double %11, 0x7FF0000000000000
  %or.cond33.not.i = select i1 %10, i1 %12, i1 false
  br i1 %or.cond33.not.i, label %55, label %13

13:                                               ; preds = %5
  %14 = fcmp oeq double %9, 0x7FF0000000000000
  br i1 %14, label %15, label %26

15:                                               ; preds = %13
  %or.cond.i = tail call i1 @llvm.is.fpclass.f64(double %6, i32 408)
  br i1 %or.cond.i, label %16, label %26

16:                                               ; preds = %15
  %17 = fcmp ogt double %7, 0.000000e+00
  %18 = tail call double @cos(double noundef %6) #11, !tbaa !3
  %19 = tail call double @sin(double noundef %6) #11, !tbaa !3
  br i1 %17, label %20, label %23

20:                                               ; preds = %16
  %21 = tail call double @llvm.copysign.f64(double 0x7FF0000000000000, double %18)
  %22 = tail call double @llvm.copysign.f64(double 0x7FF0000000000000, double %19)
  br label %51

23:                                               ; preds = %16
  %24 = tail call double @llvm.copysign.f64(double 0.000000e+00, double %18)
  %25 = tail call double @llvm.copysign.f64(double 0.000000e+00, double %19)
  br label %51

26:                                               ; preds = %15, %13
  %27 = fcmp ueq double %9, 0x7FF0000000000000
  br i1 %27, label %34, label %28

28:                                               ; preds = %26
  %29 = fcmp une double %7, 0.000000e+00
  %30 = tail call double @llvm.copysign.f64(double 1.000000e+00, double %7)
  %31 = fcmp oeq double %30, 1.000000e+00
  br i1 %29, label %32, label %33

32:                                               ; preds = %28
  %..i.i = select i1 %31, i64 4, i64 1
  br label %special_type.exit.i

33:                                               ; preds = %28
  %.7.i.i = select i1 %31, i64 3, i64 2
  br label %special_type.exit.i

34:                                               ; preds = %26
  %35 = fcmp uno double %7, 0.000000e+00
  br i1 %35, label %special_type.exit.i, label %36

36:                                               ; preds = %34
  %37 = tail call double @llvm.copysign.f64(double 1.000000e+00, double %7)
  %38 = fcmp oeq double %37, 1.000000e+00
  %.8.i.i = select i1 %38, i64 5, i64 0
  br label %special_type.exit.i

special_type.exit.i:                              ; preds = %36, %34, %33, %32
  %.0.i.i = phi i64 [ %..i.i, %32 ], [ %.7.i.i, %33 ], [ 6, %34 ], [ %.8.i.i, %36 ]
  br i1 %12, label %39, label %45

39:                                               ; preds = %special_type.exit.i
  %40 = fcmp une double %6, 0.000000e+00
  %41 = tail call double @llvm.copysign.f64(double 1.000000e+00, double %6)
  %42 = fcmp oeq double %41, 1.000000e+00
  br i1 %40, label %43, label %44

43:                                               ; preds = %39
  %..i39.i = select i1 %42, i64 4, i64 1
  br label %special_type.exit41.i

44:                                               ; preds = %39
  %.7.i37.i = select i1 %42, i64 3, i64 2
  br label %special_type.exit41.i

45:                                               ; preds = %special_type.exit.i
  %46 = fcmp uno double %6, 0.000000e+00
  br i1 %46, label %special_type.exit41.i, label %47

47:                                               ; preds = %45
  %48 = tail call double @llvm.copysign.f64(double 1.000000e+00, double %6)
  %49 = fcmp oeq double %48, 1.000000e+00
  %.8.i40.i = select i1 %49, i64 5, i64 0
  br label %special_type.exit41.i

special_type.exit41.i:                            ; preds = %47, %45, %44, %43
  %.0.i38.i = phi i64 [ %..i39.i, %43 ], [ %.7.i37.i, %44 ], [ 6, %45 ], [ %.8.i40.i, %47 ]
  %50 = getelementptr [7 x [7 x %struct.Py_complex]], ptr @exp_special_values, i64 0, i64 %.0.i.i, i64 %.0.i38.i
  %.sroa.030.0.copyload.i = load double, ptr %50, align 16, !tbaa !7
  %.sroa.7.0..sroa_idx.i = getelementptr inbounds nuw i8, ptr %50, i64 8
  %.sroa.7.0.copyload.i = load double, ptr %.sroa.7.0..sroa_idx.i, align 8, !tbaa !7
  br label %51

51:                                               ; preds = %special_type.exit41.i, %23, %20
  %.sroa.030.0.i = phi double [ %21, %20 ], [ %24, %23 ], [ %.sroa.030.0.copyload.i, %special_type.exit41.i ]
  %.sroa.7.0.i = phi double [ %22, %20 ], [ %25, %23 ], [ %.sroa.7.0.copyload.i, %special_type.exit41.i ]
  %52 = fcmp oeq double %11, 0x7FF0000000000000
  br i1 %52, label %53, label %81

53:                                               ; preds = %51
  %54 = fcmp ogt double %7, 0.000000e+00
  %or.cond5.i = select i1 %14, i1 %54, i1 false
  %or.cond34.i = select i1 %10, i1 true, i1 %or.cond5.i
  br i1 %or.cond34.i, label %77, label %81

55:                                               ; preds = %5
  %56 = fcmp ogt double %7, 0x4086232BDD7ABCD2
  br i1 %56, label %57, label %66

57:                                               ; preds = %55
  %58 = fadd double %7, -1.000000e+00
  %59 = tail call double @exp(double noundef %58) #11, !tbaa !3
  %60 = tail call double @cos(double noundef %6) #11, !tbaa !3
  %61 = fmul double %59, %60
  %62 = fmul double %61, 0x4005BF0A8B145769
  %63 = tail call double @sin(double noundef %6) #11, !tbaa !3
  %64 = fmul double %59, %63
  %65 = fmul double %64, 0x4005BF0A8B145769
  br label %72

66:                                               ; preds = %55
  %67 = tail call double @exp(double noundef %7) #11, !tbaa !3
  %68 = tail call double @cos(double noundef %6) #11, !tbaa !3
  %69 = fmul double %67, %68
  %70 = tail call double @sin(double noundef %6) #11, !tbaa !3
  %71 = fmul double %67, %70
  br label %72

72:                                               ; preds = %66, %57
  %.sroa.030.2.i = phi double [ %62, %57 ], [ %69, %66 ]
  %.sroa.7.2.i = phi double [ %65, %57 ], [ %71, %66 ]
  %73 = tail call double @llvm.fabs.f64(double %.sroa.030.2.i) #13
  %74 = fcmp oeq double %73, 0x7FF0000000000000
  %75 = tail call double @llvm.fabs.f64(double %.sroa.7.2.i) #13
  %76 = fcmp oeq double %75, 0x7FF0000000000000
  %or.cond36.i = select i1 %74, i1 true, i1 %76
  br i1 %or.cond36.i, label %79, label %81

77:                                               ; preds = %53
  store i32 33, ptr %8, align 4, !tbaa !3
  %78 = load ptr, ptr @PyExc_ValueError, align 8, !tbaa !9
  tail call void @PyErr_SetString(ptr noundef %78, ptr noundef nonnull @.str.25) #11
  br label %83

79:                                               ; preds = %72
  store i32 34, ptr %8, align 4, !tbaa !3
  %80 = load ptr, ptr @PyExc_OverflowError, align 8, !tbaa !9
  tail call void @PyErr_SetString(ptr noundef %80, ptr noundef nonnull @.str.26) #11
  br label %83

81:                                               ; preds = %72, %51, %53
  %.sroa.030.1.i.ph = phi double [ %.sroa.030.0.i, %53 ], [ %.sroa.030.0.i, %51 ], [ %.sroa.030.2.i, %72 ]
  %.sroa.7.1.i.ph = phi double [ %.sroa.7.0.i, %53 ], [ %.sroa.7.0.i, %51 ], [ %.sroa.7.2.i, %72 ]
  store i32 0, ptr %8, align 4, !tbaa !3
  %82 = tail call ptr @PyComplex_FromCComplex(double %.sroa.030.1.i.ph, double %.sroa.7.1.i.ph) #11
  br label %83

83:                                               ; preds = %2, %81, %79, %77
  %.0 = phi ptr [ null, %2 ], [ null, %77 ], [ null, %79 ], [ %82, %81 ]
  ret ptr %.0
}